; Function Attrs: mustprogress uwtable
define void @_Z31_gmx_sel_lexer_get_current_textB5cxx11Pv(ptr dead_on_unwind noalias writable sret(%"class.std::__cxx11::basic_string") align 8 %0, ptr noundef %1) local_unnamed_addr #0 {
  %3 = tail call noundef ptr @_Z20_gmx_sel_yyget_extraPv(ptr noundef %1)
  %4 = getelementptr inbounds i8, ptr %3, i64 80
  %5 = tail call noundef ptr @_Z20_gmx_sel_yyget_extraPv(ptr noundef %1), !noalias !10
  %6 = load i32, ptr %4, align 4, !noalias !10
  %7 = getelementptr inbounds i8, ptr %3, i64 84
  %8 = load i32, ptr %7, align 4, !noalias !10
  %.not.i = icmp slt i32 %6, %8
  br i1 %.not.i, label %10, label %9

9:                                                ; preds = %2
  tail call void @_ZNSt7__cxx1112basic_stringIcSt11char_traitsIcESaIcEEC1Ev(ptr noundef nonnull align 8 dereferenceable(32) %0) #13
  br label %_Z23_gmx_sel_lexer_get_textB5cxx11PvRKN3gmx17SelectionLocationE.exit

10:                                               ; preds = %2
  %11 = getelementptr inbounds i8, ptr %5, i64 48
  %12 = sext i32 %6 to i64
  %13 = sub nsw i32 %8, %6
  %14 = sext i32 %13 to i64
  tail call void @_ZNKSt7__cxx1112basic_stringIcSt11char_traitsIcESaIcEE6substrEmm(ptr dead_on_unwind writable sret(%"class.std::__cxx11::basic_string") align 8 %0, ptr noundef nonnull align 8 dereferenceable(32) %11, i64 noundef %12, i64 noundef %14)
  br label %_Z23_gmx_sel_lexer_get_textB5cxx11PvRKN3gmx17SelectionLocationE.exit

_Z23_gmx_sel_lexer_get_textB5cxx11PvRKN3gmx17SelectionLocationE.exit: ; preds = %9, %10
  ret void
}